target datalayout = "e-m:e-p270:32:32-p271:32:32-p272:64:64-i64:64-i128:128-f80:128-n8:16:32:64-S128"
target triple = "x86_64-unknown-linux-gnu"

@.str.1 = private unnamed_addr constant [1 x i8] zeroinitializer, align 1

; Function Attrs: mustprogress nounwind uwtable
define internal noundef signext i8 @_ZL9U_FAILURE10UErrorCode(i32 noundef %code) #0 {
entry:
  %code.addr = alloca i32, align 4
  store i32 %code, ptr %code.addr, align 4
  %0 = load i32, ptr %code.addr, align 4
  %cmp = icmp sgt i32 %0, 0
  %conv = zext i1 %cmp to i8
  ret i8 %conv
}

; Function Attrs: mustprogress uwtable
define internal noundef ptr @_ZL17ures_toUTF8StringPKDsiPcPiaP10UErrorCode(ptr noundef %s16, i32 noundef %length16, ptr noundef %dest, ptr noundef %pLength, i8 noundef signext %forceCopy, ptr noundef %status) #1 {
entry:
  %retval = alloca ptr, align 8
  %s16.addr = alloca ptr, align 8
  %length16.addr = alloca i32, align 4
  %dest.addr = alloca ptr, align 8
  %pLength.addr = alloca ptr, align 8
  %forceCopy.addr = alloca i8, align 1
  %status.addr = alloca ptr, align 8
  %capacity = alloca i32, align 4
  %maxLength = alloca i32, align 4
  store ptr %s16, ptr %s16.addr, align 8
  store i32 %length16, ptr %length16.addr, align 4
  store ptr %dest, ptr %dest.addr, align 8
  store ptr %pLength, ptr %pLength.addr, align 8
  store i8 %forceCopy, ptr %forceCopy.addr, align 1
  store ptr %status, ptr %status.addr, align 8
  %0 = load ptr, ptr %status.addr, align 8
  %1 = load i32, ptr %0, align 4
  %call = call noundef signext i8 @_ZL9U_FAILURE10UErrorCode(i32 noundef %1)
  %tobool = icmp ne i8 %call, 0
  br i1 %tobool, label %if.then, label %if.end

if.then:                                          ; preds = %entry
  store ptr null, ptr %retval, align 8
  br label %return

if.end:                                           ; preds = %entry
  %2 = load ptr, ptr %pLength.addr, align 8
  %cmp = icmp ne ptr %2, null
  br i1 %cmp, label %if.then1, label %if.else

if.then1:                                         ; preds = %if.end
  %3 = load ptr, ptr %pLength.addr, align 8
  %4 = load i32, ptr %3, align 4
  store i32 %4, ptr %capacity, align 4
  br label %if.end2

if.else:                                          ; preds = %if.end
  store i32 0, ptr %capacity, align 4
  br label %if.end2

if.end2:                                          ; preds = %if.else, %if.then1
  %5 = load i32, ptr %capacity, align 4
  %cmp3 = icmp slt i32 %5, 0
  br i1 %cmp3, label %if.then6, label %lor.lhs.false

lor.lhs.false:                                    ; preds = %if.end2
  %6 = load i32, ptr %capacity, align 4
  %cmp4 = icmp sgt i32 %6, 0
  br i1 %cmp4, label %land.lhs.true, label %if.end7

land.lhs.true:                                    ; preds = %lor.lhs.false
  %7 = load ptr, ptr %dest.addr, align 8
  %cmp5 = icmp eq ptr %7, null
  br i1 %cmp5, label %if.then6, label %if.end7

if.then6:                                         ; preds = %land.lhs.true, %if.end2
  %8 = load ptr, ptr %status.addr, align 8
  store i32 1, ptr %8, align 4
  store ptr null, ptr %retval, align 8
  br label %return

if.end7:                                          ; preds = %land.lhs.true, %lor.lhs.false
  %9 = load i32, ptr %length16.addr, align 4
  %cmp8 = icmp eq i32 %9, 0
  br i1 %cmp8, label %if.then9, label %if.else17

if.then9:                                         ; preds = %if.end7
  %10 = load ptr, ptr %pLength.addr, align 8
  %cmp10 = icmp ne ptr %10, null
  br i1 %cmp10, label %if.then11, label %if.end12

if.then11:                                        ; preds = %if.then9
  %11 = load ptr, ptr %pLength.addr, align 8
  store i32 0, ptr %11, align 4
  br label %if.end12

if.end12:                                         ; preds = %if.then11, %if.then9
  %12 = load i8, ptr %forceCopy.addr, align 1
  %tobool13 = icmp ne i8 %12, 0
  br i1 %tobool13, label %if.then14, label %if.else16

if.then14:                                        ; preds = %if.end12
  %13 = load ptr, ptr %dest.addr, align 8
  %14 = load i32, ptr %capacity, align 4
  %15 = load ptr, ptr %status.addr, align 8
  %call15 = call i32 @u_terminateChars_75(ptr noundef %13, i32 noundef %14, i32 noundef 0, ptr noundef %15)
  %16 = load ptr, ptr %dest.addr, align 8
  store ptr %16, ptr %retval, align 8
  br label %return

if.else16:                                        ; preds = %if.end12
  store ptr @.str.1, ptr %retval, align 8
  br label %return

if.else17:                                        ; preds = %if.end7
  %17 = load i32, ptr %capacity, align 4
  %18 = load i32, ptr %length16.addr, align 4
  %cmp18 = icmp slt i32 %17, %18
  br i1 %cmp18, label %if.then19, label %if.end21

if.then19:                                        ; preds = %if.else17
  %19 = load ptr, ptr %pLength.addr, align 8
  %20 = load ptr, ptr %s16.addr, align 8
  %21 = load i32, ptr %length16.addr, align 4
  %22 = load ptr, ptr %status.addr, align 8
  %call20 = call ptr @u_strToUTF8_75(ptr noundef null, i32 noundef 0, ptr noundef %19, ptr noundef %20, i32 noundef %21, ptr noundef %22)
  store ptr %call20, ptr %retval, align 8
  br label %return

if.end21:                                         ; preds = %if.else17
  %23 = load i8, ptr %forceCopy.addr, align 1
  %tobool22 = icmp ne i8 %23, 0
  br i1 %tobool22, label %if.end29, label %land.lhs.true23

land.lhs.true23:                                  ; preds = %if.end21
  %24 = load i32, ptr %length16.addr, align 4
  %cmp24 = icmp sle i32 %24, 715827882
  br i1 %cmp24, label %if.then25, label %if.end29

if.then25:                                        ; preds = %land.lhs.true23
  %25 = load i32, ptr %length16.addr, align 4
  %mul = mul nsw i32 3, %25
  %add = add nsw i32 %mul, 1
  store i32 %add, ptr %maxLength, align 4
  %26 = load i32, ptr %capacity, align 4
  %27 = load i32, ptr %maxLength, align 4
  %cmp26 = icmp sgt i32 %26, %27
  br i1 %cmp26, label %if.then27, label %if.end28

if.then27:                                        ; preds = %if.then25
  %28 = load i32, ptr %capacity, align 4
  %29 = load i32, ptr %maxLength, align 4
  %sub = sub nsw i32 %28, %29
  %30 = load ptr, ptr %dest.addr, align 8
  %idx.ext = sext i32 %sub to i64
  %add.ptr = getelementptr inbounds i8, ptr %30, i64 %idx.ext
  store ptr %add.ptr, ptr %dest.addr, align 8
  %31 = load i32, ptr %maxLength, align 4
  store i32 %31, ptr %capacity, align 4
  br label %if.end28

if.end28:                                         ; preds = %if.then27, %if.then25
  br label %if.end29

if.end29:                                         ; preds = %if.end28, %land.lhs.true23, %if.end21
  %32 = load ptr, ptr %dest.addr, align 8
  %33 = load i32, ptr %capacity, align 4
  %34 = load ptr, ptr %pLength.addr, align 8
  %35 = load ptr, ptr %s16.addr, align 8
  %36 = load i32, ptr %length16.addr, align 4
  %37 = load ptr, ptr %status.addr, align 8
  %call30 = call ptr @u_strToUTF8_75(ptr noundef %32, i32 noundef %33, ptr noundef %34, ptr noundef %35, i32 noundef %36, ptr noundef %37)
  store ptr %call30, ptr %retval, align 8
  br label %return

return:                                           ; preds = %if.end29, %if.then19, %if.else16, %if.then14, %if.then6, %if.then
  %38 = load ptr, ptr %retval, align 8
  ret ptr %38
}