; Function Attrs: mustprogress uwtable
define internal fastcc noundef ptr @_ZL17ures_toUTF8StringPKDsiPcPiaP10UErrorCode(ptr noundef %s16, i32 noundef %length16, ptr noundef %dest, ptr noundef %pLength, i8 noundef signext %forceCopy, ptr noundef %status) unnamed_addr #1 {
entry:
  %0 = load i32, ptr %status, align 4
  %cmp.i = icmp slt i32 %0, 1
  br i1 %cmp.i, label %if.end, label %return

if.end:                                           ; preds = %entry
  %cmp.not = icmp eq ptr %pLength, null
  br i1 %cmp.not, label %if.end7, label %if.end2

if.end2:                                          ; preds = %if.end
  %1 = load i32, ptr %pLength, align 4
  %cmp3 = icmp slt i32 %1, 0
  br i1 %cmp3, label %if.then6, label %lor.lhs.false

lor.lhs.false:                                    ; preds = %if.end2
  %cmp4 = icmp ne i32 %1, 0
  %cmp5 = icmp eq ptr %dest, null
  %or.cond = and i1 %cmp5, %cmp4
  br i1 %or.cond, label %if.then6, label %if.end7.thread

if.then6:                                         ; preds = %lor.lhs.false, %if.end2
  store i32 1, ptr %status, align 4
  br label %return

if.end7:                                          ; preds = %if.end
  %cmp8 = icmp eq i32 %length16, 0
  br i1 %cmp8, label %if.end12, label %if.else17

if.end7.thread:                                   ; preds = %lor.lhs.false
  %cmp839 = icmp eq i32 %length16, 0
  br i1 %cmp839, label %if.then11, label %if.else17

if.then11:                                        ; preds = %if.end7.thread
  store i32 0, ptr %pLength, align 4
  br label %if.end12

if.end12:                                         ; preds = %if.end7, %if.then11
  %capacity.032374144 = phi i32 [ %1, %if.then11 ], [ 0, %if.end7 ]
  %tobool13.not = icmp eq i8 %forceCopy, 0
  br i1 %tobool13.not, label %return, label %if.then14

if.then14:                                        ; preds = %if.end12
  %call15 = tail call i32 @u_terminateChars_75(ptr noundef %dest, i32 noundef %capacity.032374144, i32 noundef 0, ptr noundef nonnull %status)
  br label %return

if.else17:                                        ; preds = %if.end7.thread, %if.end7
  %capacity.0323740 = phi i32 [ %1, %if.end7.thread ], [ 0, %if.end7 ]
  %cmp18 = icmp slt i32 %capacity.0323740, %length16
  br i1 %cmp18, label %if.then19, label %if.end21

if.then19:                                        ; preds = %if.else17
  %call20 = tail call ptr @u_strToUTF8_75(ptr noundef null, i32 noundef 0, ptr noundef %pLength, ptr noundef %s16, i32 noundef %length16, ptr noundef nonnull %status)
  br label %return

if.end21:                                         ; preds = %if.else17
  %tobool22 = icmp eq i8 %forceCopy, 0
  %cmp24 = icmp slt i32 %length16, 715827883
  %or.cond1 = and i1 %cmp24, %tobool22
  br i1 %or.cond1, label %if.then25, label %if.end29

if.then25:                                        ; preds = %if.end21
  %mul = mul nsw i32 %length16, 3
  %add = add nsw i32 %mul, 1
  %cmp26 = icmp sgt i32 %capacity.0323740, %add
  br i1 %cmp26, label %if.then27, label %if.end29

if.then27:                                        ; preds = %if.then25
  %sub = sub nsw i32 %capacity.0323740, %add
  %idx.ext = sext i32 %sub to i64
  %add.ptr = getelementptr inbounds i8, ptr %dest, i64 %idx.ext
  br label %if.end29

if.end29:                                         ; preds = %if.then25, %if.then27, %if.end21
  %dest.addr.0 = phi ptr [ %add.ptr, %if.then27 ], [ %dest, %if.then25 ], [ %dest, %if.end21 ]
  %capacity.1 = phi i32 [ %add, %if.then27 ], [ %capacity.0323740, %if.then25 ], [ %capacity.0323740, %if.end21 ]
  %call30 = tail call ptr @u_strToUTF8_75(ptr noundef %dest.addr.0, i32 noundef %capacity.1, ptr noundef %pLength, ptr noundef %s16, i32 noundef %length16, ptr noundef nonnull %status)
  br label %return

return:                                           ; preds = %if.end12, %entry, %if.end29, %if.then19, %if.then14, %if.then6
  %retval.0 = phi ptr [ null, %if.then6 ], [ %dest, %if.then14 ], [ %call20, %if.then19 ], [ %call30, %if.end29 ], [ null, %entry ], [ @.str.1, %if.end12 ]
  ret ptr %retval.0
}